target datalayout = "e-m:e-p270:32:32-p271:32:32-p272:64:64-i64:64-i128:128-f80:128-n8:16:32:64-S128"
target triple = "x86_64-pc-linux-gnu"

%struct.SparseMatrix_struct = type { i32, i32, i32, i32, i32, ptr, ptr, ptr, i32, i8, i64 }

@stderr = external global ptr, align 8
@.str = private unnamed_addr constant [58 x i8] c"integer overflow when trying to allocate %zu * %zu bytes\0A\00", align 1
@.str.1 = private unnamed_addr constant [49 x i8] c"out of memory when trying to allocate %zu bytes\0A\00", align 1

; Function Attrs: nounwind uwtable
define void @SparseMatrix_delete(ptr noundef %0) #0 {
  %2 = alloca ptr, align 8
  store ptr %0, ptr %2, align 8, !tbaa !3
  %3 = load ptr, ptr %2, align 8, !tbaa !3
  %4 = icmp ne ptr %3, null
  br i1 %4, label %6, label %5

5:                                                ; preds = %1
  br label %17

6:                                                ; preds = %1
  %7 = load ptr, ptr %2, align 8, !tbaa !3
  %8 = getelementptr inbounds nuw %struct.SparseMatrix_struct, ptr %7, i32 0, i32 5
  %9 = load ptr, ptr %8, align 8, !tbaa !8
  call void @free(ptr noundef %9) #11
  %10 = load ptr, ptr %2, align 8, !tbaa !3
  %11 = getelementptr inbounds nuw %struct.SparseMatrix_struct, ptr %10, i32 0, i32 6
  %12 = load ptr, ptr %11, align 8, !tbaa !15
  call void @free(ptr noundef %12) #11
  %13 = load ptr, ptr %2, align 8, !tbaa !3
  %14 = getelementptr inbounds nuw %struct.SparseMatrix_struct, ptr %13, i32 0, i32 7
  %15 = load ptr, ptr %14, align 8, !tbaa !27
  call void @free(ptr noundef %15) #11
  %16 = load ptr, ptr %2, align 8, !tbaa !3
  call void @free(ptr noundef %16) #11
  br label %17

17:                                               ; preds = %6, %5
  ret void
}

; Function Attrs: inlinehint nounwind uwtable
define internal ptr @gv_calloc(i64 noundef %0, i64 noundef %1) #2 {
  %3 = alloca i64, align 8
  %4 = alloca i64, align 8
  %5 = alloca ptr, align 8
  store i64 %0, ptr %3, align 8, !tbaa !52
  store i64 %1, ptr %4, align 8, !tbaa !52
  %6 = load i64, ptr %3, align 8, !tbaa !52
  %7 = icmp ugt i64 %6, 0
  br i1 %7, label %8, label %18

8:                                                ; preds = %2
  %9 = load i64, ptr %3, align 8, !tbaa !52
  %10 = udiv i64 -1, %9
  %11 = load i64, ptr %4, align 8, !tbaa !52
  %12 = icmp ult i64 %10, %11
  br i1 %12, label %13, label %18

13:                                               ; preds = %8
  %14 = load ptr, ptr @stderr, align 8, !tbaa !85
  %15 = load i64, ptr %3, align 8, !tbaa !52
  %16 = load i64, ptr %4, align 8, !tbaa !52
  %17 = call i32 (ptr, ptr, ...) @fprintf(ptr noundef %14, ptr noundef @.str, i64 noundef %15, i64 noundef %16) #11
  call void @graphviz_exit(i32 noundef 1) #12
  unreachable

18:                                               ; preds = %8, %2
  call void @llvm.lifetime.start.p0(i64 8, ptr %5) #11
  %19 = load i64, ptr %3, align 8, !tbaa !52
  %20 = load i64, ptr %4, align 8, !tbaa !52
  %21 = call noalias ptr @calloc(i64 noundef %19, i64 noundef %20) #13
  store ptr %21, ptr %5, align 8, !tbaa !87
  %22 = load i64, ptr %3, align 8, !tbaa !52
  %23 = icmp ugt i64 %22, 0
  br i1 %23, label %24, label %36

24:                                               ; preds = %18
  %25 = load i64, ptr %4, align 8, !tbaa !52
  %26 = icmp ugt i64 %25, 0
  br i1 %26, label %27, label %36

27:                                               ; preds = %24
  %28 = load ptr, ptr %5, align 8, !tbaa !87
  %29 = icmp eq ptr %28, null
  br i1 %29, label %30, label %36

30:                                               ; preds = %27
  %31 = load ptr, ptr @stderr, align 8, !tbaa !85
  %32 = load i64, ptr %3, align 8, !tbaa !52
  %33 = load i64, ptr %4, align 8, !tbaa !52
  %34 = mul i64 %32, %33
  %35 = call i32 (ptr, ptr, ...) @fprintf(ptr noundef %31, ptr noundef @.str.1, i64 noundef %34) #11
  call void @graphviz_exit(i32 noundef 1) #12
  unreachable

36:                                               ; preds = %27, %24, %18
  %37 = load ptr, ptr %5, align 8, !tbaa !87
  call void @llvm.lifetime.end.p0(i64 8, ptr %5) #11
  ret ptr %37
}

; Function Attrs: nounwind uwtable
define ptr @SparseMatrix_weakly_connected_components(ptr noundef %0, ptr noundef %1, ptr noundef %2) #0 {
  %4 = alloca ptr, align 8
  %5 = alloca ptr, align 8
  %6 = alloca ptr, align 8
  %7 = alloca ptr, align 8
  %8 = alloca ptr, align 8
  %9 = alloca ptr, align 8
  %10 = alloca ptr, align 8
  %11 = alloca i32, align 4
  %12 = alloca i32, align 4
  %13 = alloca i32, align 4
  %14 = alloca i32, align 4
  %15 = alloca ptr, align 8
  store ptr %0, ptr %4, align 8, !tbaa !3
  store ptr %1, ptr %5, align 8, !tbaa !14
  store ptr %2, ptr %6, align 8, !tbaa !187
  call void @llvm.lifetime.start.p0(i64 8, ptr %7) #11
  %16 = load ptr, ptr %4, align 8, !tbaa !3
  store ptr %16, ptr %7, align 8, !tbaa !3
  call void @llvm.lifetime.start.p0(i64 8, ptr %8) #11
  store ptr null, ptr %8, align 8, !tbaa !14
  call void @llvm.lifetime.start.p0(i64 8, ptr %9) #11
  store ptr null, ptr %9, align 8, !tbaa !14
  call void @llvm.lifetime.start.p0(i64 8, ptr %10) #11
  store ptr null, ptr %10, align 8, !tbaa !14
  call void @llvm.lifetime.start.p0(i64 4, ptr %11) #11
  call void @llvm.lifetime.start.p0(i64 4, ptr %12) #11
  %17 = load ptr, ptr %7, align 8, !tbaa !3
  %18 = getelementptr inbounds nuw %struct.SparseMatrix_struct, ptr %17, i32 0, i32 0
  %19 = load i32, ptr %18, align 8, !tbaa !18
  store i32 %19, ptr %12, align 4, !tbaa !17
  call void @llvm.lifetime.start.p0(i64 4, ptr %13) #11
  call void @llvm.lifetime.start.p0(i64 4, ptr %14) #11
  %20 = load ptr, ptr %7, align 8, !tbaa !3
  %21 = call zeroext i1 @SparseMatrix_is_symmetric(ptr noundef %20, i1 noundef zeroext true)
  br i1 %21, label %25, label %22

22:                                               ; preds = %3
  %23 = load ptr, ptr %7, align 8, !tbaa !3
  %24 = call ptr @SparseMatrix_symmetrize(ptr noundef %23, i1 noundef zeroext true)
  store ptr %24, ptr %7, align 8, !tbaa !3
  br label %25

25:                                               ; preds = %22, %3
  call void @llvm.lifetime.start.p0(i64 8, ptr %15) #11
  %26 = load i32, ptr %12, align 4, !tbaa !17
  %27 = add nsw i32 %26, 1
  %28 = sext i32 %27 to i64
  %29 = call ptr @gv_calloc(i64 noundef %28, i64 noundef 4)
  store ptr %29, ptr %15, align 8, !tbaa !14
  %30 = load ptr, ptr %5, align 8, !tbaa !14
  store i32 0, ptr %30, align 4, !tbaa !17
  %31 = load ptr, ptr %15, align 8, !tbaa !14
  %32 = getelementptr inbounds i32, ptr %31, i64 0
  store i32 0, ptr %32, align 4, !tbaa !17
  store i32 0, ptr %13, align 4, !tbaa !17
  br label %33

33:                                               ; preds = %83, %25
  %34 = load i32, ptr %13, align 4, !tbaa !17
  %35 = load i32, ptr %12, align 4, !tbaa !17
  %36 = icmp slt i32 %34, %35
  br i1 %36, label %37, label %86

37:                                               ; preds = %33
  %38 = load i32, ptr %13, align 4, !tbaa !17
  %39 = icmp eq i32 %38, 0
  br i1 %39, label %47, label %40

40:                                               ; preds = %37
  %41 = load ptr, ptr %10, align 8, !tbaa !14
  %42 = load i32, ptr %13, align 4, !tbaa !17
  %43 = sext i32 %42 to i64
  %44 = getelementptr inbounds i32, ptr %41, i64 %43
  %45 = load i32, ptr %44, align 4, !tbaa !17
  %46 = icmp slt i32 %45, 0
  br i1 %46, label %47, label %82

47:                                               ; preds = %40, %37
  %48 = load ptr, ptr %7, align 8, !tbaa !3
  %49 = load i32, ptr %13, align 4, !tbaa !17
  call void @SparseMatrix_level_sets(ptr noundef %48, i32 noundef %49, ptr noundef %11, ptr noundef %8, ptr noundef %9, ptr noundef %10, i1 noundef zeroext false)
  %50 = load i32, ptr %13, align 4, !tbaa !17
  %51 = icmp eq i32 %50, 0
  br i1 %51, label %52, label %55

52:                                               ; preds = %47
  %53 = load ptr, ptr %9, align 8, !tbaa !14
  %54 = load ptr, ptr %6, align 8, !tbaa !187
  store ptr %53, ptr %54, align 8, !tbaa !14
  br label %55

55:                                               ; preds = %52, %47
  %56 = load ptr, ptr %8, align 8, !tbaa !14
  %57 = load i32, ptr %11, align 4, !tbaa !17
  %58 = sext i32 %57 to i64
  %59 = getelementptr inbounds i32, ptr %56, i64 %58
  %60 = load i32, ptr %59, align 4, !tbaa !17
  store i32 %60, ptr %14, align 4, !tbaa !17
  %61 = load i32, ptr %14, align 4, !tbaa !17
  %62 = load ptr, ptr %9, align 8, !tbaa !14
  %63 = sext i32 %61 to i64
  %64 = getelementptr inbounds i32, ptr %62, i64 %63
  store ptr %64, ptr %9, align 8, !tbaa !14
  %65 = load ptr, ptr %15, align 8, !tbaa !14
  %66 = load ptr, ptr %5, align 8, !tbaa !14
  %67 = load i32, ptr %66, align 4, !tbaa !17
  %68 = sext i32 %67 to i64
  %69 = getelementptr inbounds i32, ptr %65, i64 %68
  %70 = load i32, ptr %69, align 4, !tbaa !17
  %71 = load i32, ptr %14, align 4, !tbaa !17
  %72 = add nsw i32 %70, %71
  %73 = load ptr, ptr %15, align 8, !tbaa !14
  %74 = load ptr, ptr %5, align 8, !tbaa !14
  %75 = load i32, ptr %74, align 4, !tbaa !17
  %76 = add nsw i32 %75, 1
  %77 = sext i32 %76 to i64
  %78 = getelementptr inbounds i32, ptr %73, i64 %77
  store i32 %72, ptr %78, align 4, !tbaa !17
  %79 = load ptr, ptr %5, align 8, !tbaa !14
  %80 = load i32, ptr %79, align 4, !tbaa !17
  %81 = add nsw i32 %80, 1
  store i32 %81, ptr %79, align 4, !tbaa !17
  br label %82

82:                                               ; preds = %55, %40
  br label %83

83:                                               ; preds = %82
  %84 = load i32, ptr %13, align 4, !tbaa !17
  %85 = add nsw i32 %84, 1
  store i32 %85, ptr %13, align 4, !tbaa !17
  br label %33, !llvm.loop !189

86:                                               ; preds = %33
  %87 = load ptr, ptr %7, align 8, !tbaa !3
  %88 = load ptr, ptr %4, align 8, !tbaa !3
  %89 = icmp ne ptr %87, %88
  br i1 %89, label %90, label %92

90:                                               ; preds = %86
  %91 = load ptr, ptr %7, align 8, !tbaa !3
  call void @SparseMatrix_delete(ptr noundef %91)
  br label %92

92:                                               ; preds = %90, %86
  %93 = load ptr, ptr %8, align 8, !tbaa !14
  call void @free(ptr noundef %93) #11
  %94 = load ptr, ptr %10, align 8, !tbaa !14
  call void @free(ptr noundef %94) #11
  %95 = load ptr, ptr %15, align 8, !tbaa !14
  call void @llvm.lifetime.end.p0(i64 8, ptr %15) #11
  call void @llvm.lifetime.end.p0(i64 4, ptr %14) #11
  call void @llvm.lifetime.end.p0(i64 4, ptr %13) #11
  call void @llvm.lifetime.end.p0(i64 4, ptr %12) #11
  call void @llvm.lifetime.end.p0(i64 4, ptr %11) #11
  call void @llvm.lifetime.end.p0(i64 8, ptr %10) #11
  call void @llvm.lifetime.end.p0(i64 8, ptr %9) #11
  call void @llvm.lifetime.end.p0(i64 8, ptr %8) #11
  call void @llvm.lifetime.end.p0(i64 8, ptr %7) #11
  ret ptr %95
}