; Function Attrs: nounwind uwtable
define noalias noundef ptr @SparseMatrix_weakly_connected_components(ptr noundef captures(address) %0, ptr noundef captures(none) %1, ptr noundef writeonly captures(none) %2) local_unnamed_addr #0 {
  %4 = alloca ptr, align 8
  %5 = alloca ptr, align 8
  %6 = alloca ptr, align 8
  %7 = alloca i32, align 4
  call void @llvm.lifetime.start.p0(i64 8, ptr nonnull %4) #17
  store ptr null, ptr %4, align 8, !tbaa !169
  call void @llvm.lifetime.start.p0(i64 8, ptr nonnull %5) #17
  store ptr null, ptr %5, align 8, !tbaa !169
  call void @llvm.lifetime.start.p0(i64 8, ptr nonnull %6) #17
  store ptr null, ptr %6, align 8, !tbaa !169
  call void @llvm.lifetime.start.p0(i64 4, ptr nonnull %7) #17
  %8 = load i32, ptr %0, align 8, !tbaa !15
  %9 = tail call zeroext i1 @SparseMatrix_is_symmetric(ptr noundef nonnull %0, i1 noundef zeroext true)
  br i1 %9, label %12, label %10

10:                                               ; preds = %3
  %11 = tail call ptr @SparseMatrix_symmetrize(ptr noundef nonnull %0, i1 noundef zeroext true)
  br label %12

12:                                               ; preds = %10, %3
  %.0 = phi ptr [ %0, %3 ], [ %11, %10 ]
  %13 = add nsw i32 %8, 1
  %14 = sext i32 %13 to i64
  %.not30 = icmp eq i32 %13, 0
  br i1 %.not30, label %gv_calloc.exit.thread, label %16

gv_calloc.exit.thread:                            ; preds = %12
  %15 = tail call noalias ptr @calloc(i64 noundef range(i64 -4294967296, 4294967295) %14, i64 noundef 4) #20
  store i32 0, ptr %1, align 4, !tbaa !19
  br label %._crit_edge

16:                                               ; preds = %12
  %mul.ov.i = icmp slt i32 %8, -1
  br i1 %mul.ov.i, label %17, label %20

17:                                               ; preds = %16
  %18 = load ptr, ptr @stderr, align 8, !tbaa !43
  %19 = tail call i32 (ptr, ptr, ...) @fprintf(ptr noundef %18, ptr noundef nonnull @.str, i64 noundef range(i64 -4294967296, 4294967295) %14, i64 noundef 4) #18
  tail call fastcc void @graphviz_exit() #19
  unreachable

20:                                               ; preds = %16
  %21 = tail call noalias ptr @calloc(i64 noundef range(i64 -4294967296, 4294967295) %14, i64 noundef 4) #20
  %22 = icmp eq ptr %21, null
  br i1 %22, label %23, label %gv_calloc.exit

23:                                               ; preds = %20
  %24 = load ptr, ptr @stderr, align 8, !tbaa !43
  %25 = shl nuw nsw i64 %14, 2
  %26 = tail call i32 (ptr, ptr, ...) @fprintf(ptr noundef %24, ptr noundef nonnull @.str.1, i64 noundef %25) #18
  tail call fastcc void @graphviz_exit() #19
  unreachable

gv_calloc.exit:                                   ; preds = %20
  store i32 0, ptr %1, align 4, !tbaa !19
  %.not34 = icmp eq i32 %8, 0
  br i1 %.not34, label %._crit_edge, label %.lr.ph.preheader

.lr.ph.preheader:                                 ; preds = %gv_calloc.exit
  %wide.trip.count = zext nneg i32 %8 to i64
  br label %.lr.ph

.lr.ph:                                           ; preds = %.lr.ph.preheader, %54
  %27 = phi ptr [ null, %.lr.ph.preheader ], [ %55, %54 ]
  %indvars.iv = phi i64 [ 0, %.lr.ph.preheader ], [ %indvars.iv.next, %54 ]
  %28 = icmp eq i64 %indvars.iv, 0
  br i1 %28, label %36, label %29

29:                                               ; preds = %.lr.ph
  %30 = load ptr, ptr %6, align 8, !tbaa !169
  %31 = getelementptr inbounds nuw i32, ptr %30, i64 %indvars.iv
  %32 = load i32, ptr %31, align 4, !tbaa !19
  %33 = icmp slt i32 %32, 0
  br i1 %33, label %34, label %54

34:                                               ; preds = %29
  %35 = trunc nuw nsw i64 %indvars.iv to i32
  call fastcc void @SparseMatrix_level_sets(ptr noundef %.0, i32 noundef %35, ptr noundef %7, ptr noundef %4, ptr noundef %5, ptr noundef %6, i1 noundef zeroext false)
  %.pre = load ptr, ptr %5, align 8, !tbaa !169
  br label %38

36:                                               ; preds = %.lr.ph
  call fastcc void @SparseMatrix_level_sets(ptr noundef %.0, i32 noundef 0, ptr noundef %7, ptr noundef %4, ptr noundef %5, ptr noundef %6, i1 noundef zeroext false)
  %37 = load ptr, ptr %5, align 8, !tbaa !169
  store ptr %37, ptr %2, align 8, !tbaa !169
  br label %38

38:                                               ; preds = %34, %36
  %39 = phi ptr [ %.pre, %34 ], [ %37, %36 ]
  %40 = load ptr, ptr %4, align 8, !tbaa !169
  %41 = load i32, ptr %7, align 4, !tbaa !19
  %42 = sext i32 %41 to i64
  %43 = getelementptr inbounds i32, ptr %40, i64 %42
  %44 = load i32, ptr %43, align 4, !tbaa !19
  %45 = sext i32 %44 to i64
  %46 = getelementptr inbounds i32, ptr %39, i64 %45
  store ptr %46, ptr %5, align 8, !tbaa !169
  %47 = load i32, ptr %1, align 4, !tbaa !19
  %48 = sext i32 %47 to i64
  %49 = getelementptr inbounds i32, ptr %21, i64 %48
  %50 = load i32, ptr %49, align 4, !tbaa !19
  %51 = add nsw i32 %50, %44
  %52 = getelementptr i8, ptr %49, i64 4
  store i32 %51, ptr %52, align 4, !tbaa !19
  %53 = add nsw i32 %47, 1
  store i32 %53, ptr %1, align 4, !tbaa !19
  br label %54

54:                                               ; preds = %29, %38
  %55 = phi ptr [ %27, %29 ], [ %40, %38 ]
  %indvars.iv.next = add nuw nsw i64 %indvars.iv, 1
  %exitcond.not = icmp eq i64 %indvars.iv.next, %wide.trip.count
  br i1 %exitcond.not, label %._crit_edge, label %.lr.ph, !llvm.loop !170

._crit_edge:                                      ; preds = %54, %gv_calloc.exit.thread, %gv_calloc.exit
  %56 = phi ptr [ %21, %gv_calloc.exit ], [ %15, %gv_calloc.exit.thread ], [ %21, %54 ]
  %57 = phi ptr [ null, %gv_calloc.exit ], [ null, %gv_calloc.exit.thread ], [ %55, %54 ]
  %.not = icmp eq ptr %.0, %0
  %.not.i = icmp eq ptr %.0, null
  %or.cond = or i1 %.not, %.not.i
  br i1 %or.cond, label %SparseMatrix_delete.exit, label %58

58:                                               ; preds = %._crit_edge
  %59 = getelementptr inbounds nuw i8, ptr %.0, i64 24
  %60 = load ptr, ptr %59, align 8, !tbaa !3
  tail call void @free(ptr noundef %60) #17
  %61 = getelementptr inbounds nuw i8, ptr %.0, i64 32
  %62 = load ptr, ptr %61, align 8, !tbaa !12
  tail call void @free(ptr noundef %62) #17
  %63 = getelementptr inbounds nuw i8, ptr %.0, i64 40
  %64 = load ptr, ptr %63, align 8, !tbaa !13
  tail call void @free(ptr noundef %64) #17
  tail call void @free(ptr noundef nonnull %.0) #17
  br label %SparseMatrix_delete.exit

SparseMatrix_delete.exit:                         ; preds = %58, %._crit_edge
  tail call void @free(ptr noundef %57) #17
  %65 = load ptr, ptr %6, align 8, !tbaa !169
  tail call void @free(ptr noundef %65) #17
  call void @llvm.lifetime.end.p0(i64 4, ptr nonnull %7) #17
  call void @llvm.lifetime.end.p0(i64 8, ptr nonnull %6) #17
  call void @llvm.lifetime.end.p0(i64 8, ptr nonnull %5) #17
  call void @llvm.lifetime.end.p0(i64 8, ptr nonnull %4) #17
  ret ptr %56
}